ccopy_reg
_reconstructor
p0
(cgoogle.oauth2.credentials
Credentials
p1
c__builtin__
object
p2
Ntp3
Rp4
(dp5
S'_quota_project_id'
p6
NsS'_token_uri'
p7
Vhttps://oauth2.googleapis.com/token
p8
sS'_client_secret'
p9
V1pvlWNaTtKThxej59_t0u0o7
p10
sS'_id_token'
p11
NsS'token'
p12
Vya29.a0Adw1xeUeGnvNKo6-hReCl3_ltmfDjFx_Nu6rjX9ZG14GJgQV108YY2_v3CN9KXrZy--V9z0lFRkshGx5E4vd7NISy-3fFO7YPe9j_NkJdCbIz7IPMcoQN7MTxNfEJv18sNkN78S4t_h8EZkQ9O0-pe9lgbVeSeaMn5k
p13
sS'_refresh_token'
p14
V1//09gSIUYk9C9w_CgYIARAAGAkSNwF-L9IrRc4Fd-pwTYG6nCaSHg4tASsJ9yXPkuC65W7xVeWD7JDUKCYvJCNmLdjvScs70ZtqUQ0
p15
sS'_scopes'
p16
(lp17
S'https://www.googleapis.com/auth/calendar.readonly'
p18
asS'_client_id'
p19
V516655538239-o5goqh0ob2sp43mbsm8lgk1lumama3an.apps.googleusercontent.com
p20
sS'expiry'
p21
cdatetime
datetime
p22
(S'\x07\xe4\x03\x0e\x11\x16\x0e\x00\x83\x9d'
p23
tp24
Rp25
sb.